; Function Attrs: nounwind uwtable
define range(i32 0, 2) i32 @SSL_CTX_use_certificate_ASN1(ptr noundef %0, i32 noundef %1, ptr noundef %2) local_unnamed_addr #0 {
  %4 = alloca ptr, align 8
  %5 = alloca ptr, align 8
  store ptr %2, ptr %4, align 8, !tbaa !99
  call void @llvm.lifetime.start.p0(i64 8, ptr nonnull %5) #6
  %6 = load ptr, ptr %0, align 8, !tbaa !82
  %7 = getelementptr inbounds nuw i8, ptr %0, i64 1152
  %8 = load ptr, ptr %7, align 8, !tbaa !96
  %9 = tail call ptr @X509_new_ex(ptr noundef %6, ptr noundef %8) #6
  store ptr %9, ptr %5, align 8, !tbaa !80
  %10 = icmp eq ptr %9, null
  br i1 %10, label %11, label %12

11:                                               ; preds = %3
  tail call void @ERR_new() #6
  tail call void @ERR_set_debug(ptr noundef nonnull @.str, i32 noundef 365, ptr noundef nonnull @__func__.SSL_CTX_use_certificate_ASN1) #6
  tail call void (i32, i32, ptr, ...) @ERR_set_error(i32 noundef 20, i32 noundef 524301, ptr noundef null) #6
  br label %21

12:                                               ; preds = %3
  %13 = sext i32 %1 to i64
  %14 = call ptr @d2i_X509(ptr noundef nonnull %5, ptr noundef nonnull %4, i64 noundef %13) #6
  %15 = icmp eq ptr %14, null
  %16 = load ptr, ptr %5, align 8, !tbaa !80
  br i1 %15, label %17, label %18

17:                                               ; preds = %12
  call void @X509_free(ptr noundef %16) #6
  call void @ERR_new() #6
  call void @ERR_set_debug(ptr noundef nonnull @.str, i32 noundef 371, ptr noundef nonnull @__func__.SSL_CTX_use_certificate_ASN1) #6
  call void (i32, i32, ptr, ...) @ERR_set_error(i32 noundef 20, i32 noundef 524301, ptr noundef null) #6
  br label %21

18:                                               ; preds = %12
  %19 = call i32 @SSL_CTX_use_certificate(ptr noundef nonnull %0, ptr noundef %16)
  %20 = load ptr, ptr %5, align 8, !tbaa !80
  call void @X509_free(ptr noundef %20) #6
  br label %21

21:                                               ; preds = %18, %17, %11
  %.0 = phi i32 [ 0, %11 ], [ 0, %17 ], [ %19, %18 ]
  call void @llvm.lifetime.end.p0(i64 8, ptr nonnull %5) #6
  ret i32 %.0
}